; Function Attrs: mustprogress uwtable
define void @_ZN7rocksdb21PersistRocksDBOptionsERKNS_12WriteOptionsERKNS_9DBOptionsERKSt6vectorINSt7__cxx1112basic_stringIcSt11char_traitsIcESaIcEEESaISC_EERKS6_INS_19ColumnFamilyOptionsESaISH_EERKSC_PNS_10FileSystemE(ptr dead_on_unwind noalias writable sret(%"class.rocksdb::Status") align 8 %0, ptr noundef nonnull align 8 dereferenceable(25) %1, ptr noundef nonnull align 8 dereferenceable(706) %2, ptr noundef nonnull readonly align 8 captures(none) dereferenceable(24) %3, ptr noundef nonnull readonly align 8 captures(none) dereferenceable(24) %4, ptr noundef nonnull align 8 dereferenceable(32) %5, ptr noundef %6) local_unnamed_addr #4 personality ptr @__gxx_personality_v0 {
  %8 = alloca %"struct.rocksdb::ConfigOptions", align 8
  call void @llvm.lifetime.start.p0(i64 80, ptr nonnull %8) #26
  call void @_ZN7rocksdb13ConfigOptionsC1Ev(ptr noundef nonnull align 8 dereferenceable(80) %8)
  %9 = getelementptr inbounds nuw i8, ptr %8, i64 8
  %10 = getelementptr inbounds nuw i8, ptr %8, i64 16
  %11 = load i64, ptr %10, align 8, !tbaa !12
  %12 = invoke noundef nonnull align 8 dereferenceable(32) ptr @_ZNSt7__cxx1112basic_stringIcSt11char_traitsIcESaIcEE10_M_replaceEmmPKcm(ptr noundef nonnull align 8 dereferenceable(32) %9, i64 noundef 0, i64 noundef %11, ptr noundef nonnull @.str.49, i64 noundef 3)
          to label %_ZNSt7__cxx1112basic_stringIcSt11char_traitsIcESaIcEEaSEPKc.exit unwind label %18

_ZNSt7__cxx1112basic_stringIcSt11char_traitsIcESaIcEEaSEPKc.exit: ; preds = %7
  %13 = getelementptr inbounds nuw i8, ptr %8, i64 3
  store i8 0, ptr %13, align 1, !tbaa !18
  %14 = getelementptr inbounds nuw i8, ptr %2, i64 536
  %15 = load i64, ptr %14, align 8, !tbaa !29
  %.not = icmp eq i64 %15, 0
  br i1 %.not, label %20, label %16

16:                                               ; preds = %_ZNSt7__cxx1112basic_stringIcSt11char_traitsIcESaIcEEaSEPKc.exit
  %17 = getelementptr inbounds nuw i8, ptr %8, i64 48
  store i64 %15, ptr %17, align 8, !tbaa !73
  br label %20

18:                                               ; preds = %7, %20
  %19 = landingpad { ptr, i32 }
          cleanup
  call void @_ZN7rocksdb13ConfigOptionsD2Ev(ptr noundef nonnull align 8 dereferenceable(80) %8) #26
  call void @llvm.lifetime.end.p0(i64 80, ptr nonnull %8) #26
  resume { ptr, i32 } %19

20:                                               ; preds = %16, %_ZNSt7__cxx1112basic_stringIcSt11char_traitsIcESaIcEEaSEPKc.exit
  invoke void @_ZN7rocksdb21PersistRocksDBOptionsERKNS_12WriteOptionsERKNS_13ConfigOptionsERKNS_9DBOptionsERKSt6vectorINSt7__cxx1112basic_stringIcSt11char_traitsIcESaIcEEESaISF_EERKS9_INS_19ColumnFamilyOptionsESaISK_EERKSF_PNS_10FileSystemE(ptr dead_on_unwind writable sret(%"class.rocksdb::Status") align 8 %0, ptr noundef nonnull align 8 dereferenceable(25) %1, ptr noundef nonnull align 8 dereferenceable(80) %8, ptr noundef nonnull align 8 dereferenceable(706) %2, ptr noundef nonnull align 8 dereferenceable(24) %3, ptr noundef nonnull align 8 dereferenceable(24) %4, ptr noundef nonnull align 8 dereferenceable(32) %5, ptr noundef %6)
          to label %21 unwind label %18

21:                                               ; preds = %20
  %22 = getelementptr inbounds nuw i8, ptr %8, i64 72
  %23 = load ptr, ptr %22, align 8, !tbaa !74
  %.not.i.i.i = icmp eq ptr %23, null
  br i1 %.not.i.i.i, label %_ZNSt12__shared_ptrIN7rocksdb14ObjectRegistryELN9__gnu_cxx12_Lock_policyE2EED2Ev.exit.i, label %24

24:                                               ; preds = %21
  %25 = getelementptr inbounds nuw i8, ptr %23, i64 8
  %26 = load atomic i64, ptr %25 acquire, align 8
  %27 = icmp eq i64 %26, 4294967297
  %28 = trunc i64 %26 to i32
  br i1 %27, label %29, label %37

29:                                               ; preds = %24
  store i32 0, ptr %25, align 8, !tbaa !75
  %30 = getelementptr inbounds nuw i8, ptr %23, i64 12
  store i32 0, ptr %30, align 4, !tbaa !77
  %31 = load ptr, ptr %23, align 8, !tbaa !78
  %32 = getelementptr inbounds nuw i8, ptr %31, i64 16
  %33 = load ptr, ptr %32, align 8
  call void %33(ptr noundef nonnull align 8 dereferenceable(16) %23) #26
  %34 = load ptr, ptr %23, align 8, !tbaa !78
  %35 = getelementptr inbounds nuw i8, ptr %34, i64 24
  %36 = load ptr, ptr %35, align 8
  call void %36(ptr noundef nonnull align 8 dereferenceable(16) %23) #26
  br label %_ZNSt12__shared_ptrIN7rocksdb14ObjectRegistryELN9__gnu_cxx12_Lock_policyE2EED2Ev.exit.i

37:                                               ; preds = %24
  %38 = load i8, ptr @__libc_single_threaded, align 1, !tbaa !13
  %.not.i.i.i.i = icmp eq i8 %38, 0
  br i1 %.not.i.i.i.i, label %41, label %39

39:                                               ; preds = %37
  %40 = add nsw i32 %28, -1
  store i32 %40, ptr %25, align 4, !tbaa !80
  br label %_ZN9__gnu_cxx27__exchange_and_add_dispatchEPii.exit.i.i.i.i

41:                                               ; preds = %37
  %42 = atomicrmw volatile add ptr %25, i32 -1 acq_rel, align 4
  br label %_ZN9__gnu_cxx27__exchange_and_add_dispatchEPii.exit.i.i.i.i

_ZN9__gnu_cxx27__exchange_and_add_dispatchEPii.exit.i.i.i.i: ; preds = %41, %39
  %.0.i.i.i.i.i = phi i32 [ %28, %39 ], [ %42, %41 ]
  %43 = icmp eq i32 %.0.i.i.i.i.i, 1
  br i1 %43, label %44, label %_ZNSt12__shared_ptrIN7rocksdb14ObjectRegistryELN9__gnu_cxx12_Lock_policyE2EED2Ev.exit.i, !prof !81

44:                                               ; preds = %_ZN9__gnu_cxx27__exchange_and_add_dispatchEPii.exit.i.i.i.i
  call void @_ZNSt16_Sp_counted_baseILN9__gnu_cxx12_Lock_policyE2EE24_M_release_last_use_coldEv(ptr noundef nonnull align 8 dereferenceable(16) %23) #26
  br label %_ZNSt12__shared_ptrIN7rocksdb14ObjectRegistryELN9__gnu_cxx12_Lock_policyE2EED2Ev.exit.i

_ZNSt12__shared_ptrIN7rocksdb14ObjectRegistryELN9__gnu_cxx12_Lock_policyE2EED2Ev.exit.i: ; preds = %44, %_ZN9__gnu_cxx27__exchange_and_add_dispatchEPii.exit.i.i.i.i, %29, %21
  %45 = load ptr, ptr %9, align 8, !tbaa !4
  %46 = getelementptr inbounds nuw i8, ptr %8, i64 24
  %47 = icmp eq ptr %45, %46
  br i1 %47, label %_ZNKSt7__cxx1112basic_stringIcSt11char_traitsIcESaIcEE11_M_is_localEv.exit.thread.i.i.i, label %_ZNKSt7__cxx1112basic_stringIcSt11char_traitsIcESaIcEE11_M_is_localEv.exit.i.i.i

_ZNKSt7__cxx1112basic_stringIcSt11char_traitsIcESaIcEE11_M_is_localEv.exit.thread.i.i.i: ; preds = %_ZNSt12__shared_ptrIN7rocksdb14ObjectRegistryELN9__gnu_cxx12_Lock_policyE2EED2Ev.exit.i
  %48 = load i64, ptr %10, align 8, !tbaa !12
  %49 = icmp ult i64 %48, 16
  call void @llvm.assume(i1 %49)
  br label %_ZN7rocksdb13ConfigOptionsD2Ev.exit

_ZNKSt7__cxx1112basic_stringIcSt11char_traitsIcESaIcEE11_M_is_localEv.exit.i.i.i: ; preds = %_ZNSt12__shared_ptrIN7rocksdb14ObjectRegistryELN9__gnu_cxx12_Lock_policyE2EED2Ev.exit.i
  %50 = load i64, ptr %46, align 8, !tbaa !13
  %51 = add i64 %50, 1
  call void @_ZdlPvm(ptr noundef %45, i64 noundef %51) #25
  br label %_ZN7rocksdb13ConfigOptionsD2Ev.exit

_ZN7rocksdb13ConfigOptionsD2Ev.exit:              ; preds = %_ZNKSt7__cxx1112basic_stringIcSt11char_traitsIcESaIcEE11_M_is_localEv.exit.thread.i.i.i, %_ZNKSt7__cxx1112basic_stringIcSt11char_traitsIcESaIcEE11_M_is_localEv.exit.i.i.i
  call void @llvm.lifetime.end.p0(i64 80, ptr nonnull %8) #26
  ret void
}